target datalayout = "e-m:e-p270:32:32-p271:32:32-p272:64:64-i64:64-i128:128-f80:128-n8:16:32:64-S128"
target triple = "x86_64-pc-linux-gnu"

; Function Attrs: nounwind uwtable
define hidden void @_glfwGetMonitorPosNull(ptr noundef %0, ptr noundef %1, ptr noundef %2) #0 {
  %4 = alloca ptr, align 8
  %5 = alloca ptr, align 8
  %6 = alloca ptr, align 8
  store ptr %0, ptr %4, align 8, !tbaa !11
  store ptr %1, ptr %5, align 8, !tbaa !18
  store ptr %2, ptr %6, align 8, !tbaa !18
  %7 = load ptr, ptr %5, align 8, !tbaa !18
  %8 = icmp ne ptr %7, null
  br i1 %8, label %9, label %11

9:                                                ; preds = %3
  %10 = load ptr, ptr %5, align 8, !tbaa !18
  store i32 0, ptr %10, align 4, !tbaa !20
  br label %11

11:                                               ; preds = %9, %3
  %12 = load ptr, ptr %6, align 8, !tbaa !18
  %13 = icmp ne ptr %12, null
  br i1 %13, label %14, label %16

14:                                               ; preds = %11
  %15 = load ptr, ptr %6, align 8, !tbaa !18
  store i32 0, ptr %15, align 4, !tbaa !20
  br label %16

16:                                               ; preds = %14, %11
  ret void
}