; Function Attrs: mustprogress nofree norecurse nosync nounwind willreturn memory(argmem: write) uwtable
define hidden void @_glfwGetMonitorPosNull(ptr noundef readnone captures(none) %0, ptr noundef writeonly captures(address_is_null) %1, ptr noundef writeonly captures(address_is_null) %2) local_unnamed_addr #2 {
  %.not = icmp eq ptr %1, null
  br i1 %.not, label %5, label %4

4:                                                ; preds = %3
  store i32 0, ptr %1, align 4, !tbaa !3
  br label %5

5:                                                ; preds = %4, %3
  %.not5 = icmp eq ptr %2, null
  br i1 %.not5, label %7, label %6

6:                                                ; preds = %5
  store i32 0, ptr %2, align 4, !tbaa !3
  br label %7

7:                                                ; preds = %6, %5
  ret void
}